; Function Attrs: mustprogress uwtable
define void @_ZN32pxrInternal_v0_24__pxrReserved__21HdPrefixingSceneIndexC2ERKNS_8TfRefPtrINS_16HdSceneIndexBaseEEERKNS_7SdfPathE(ptr noundef nonnull align 8 dereferenceable(160) %0, ptr noundef nonnull align 8 dereferenceable(8) %1, ptr nocapture noundef nonnull readonly align 4 dereferenceable(8) %2) unnamed_addr #0 align 2 personality ptr @__gxx_personality_v0 {
  tail call void @_ZN32pxrInternal_v0_24__pxrReserved__36HdSingleInputFilteringSceneIndexBaseC2ERKNS_8TfRefPtrINS_16HdSceneIndexBaseEEE(ptr noundef nonnull align 8 dereferenceable(152) %0, ptr noundef nonnull align 8 dereferenceable(8) %1)
  store ptr getelementptr inbounds inrange(-16, 80) (i8, ptr @_ZTVN32pxrInternal_v0_24__pxrReserved__21HdPrefixingSceneIndexE, i64 16), ptr %0, align 8
  %4 = getelementptr inbounds nuw i8, ptr %0, i64 152
  %5 = load i32, ptr %2, align 4
  store i32 %5, ptr %4, align 8
  %.not.i.i = icmp eq i32 %5, 0
  br i1 %.not.i.i, label %_ZN32pxrInternal_v0_24__pxrReserved__7SdfPathC2ERKS0_.exit, label %6

6:                                                ; preds = %3
  %7 = and i32 %5, 255
  %8 = lshr i32 %5, 8
  %9 = zext nneg i32 %7 to i64
  %10 = getelementptr inbounds [257 x ptr], ptr @_ZN32pxrInternal_v0_24__pxrReserved__8Sdf_PoolINS_15Sdf_PathPrimTagELj24ELj8ELj16384EE13_regionStartsE, i64 0, i64 %9
  %11 = load ptr, ptr %10, align 8
  %12 = mul nuw nsw i32 %8, 24
  %13 = zext nneg i32 %12 to i64
  %14 = getelementptr inbounds i8, ptr %11, i64 %13
  %15 = getelementptr inbounds nuw i8, ptr %14, i64 8
  %16 = atomicrmw add ptr %15, i32 1 monotonic, align 4
  br label %_ZN32pxrInternal_v0_24__pxrReserved__7SdfPathC2ERKS0_.exit

_ZN32pxrInternal_v0_24__pxrReserved__7SdfPathC2ERKS0_.exit: ; preds = %3, %6
  %17 = getelementptr inbounds i8, ptr %0, i64 156
  %18 = getelementptr inbounds nuw i8, ptr %2, i64 4
  %19 = load i32, ptr %18, align 4
  store i32 %19, ptr %17, align 4
  ret void
}